target datalayout = "e-m:e-p270:32:32-p271:32:32-p272:64:64-i64:64-i128:128-f80:128-n8:16:32:64-S128"
target triple = "x86_64-pc-linux-gnu"

%union.Cubic = type { [4 x float] }

; Function Attrs: nounwind uwtable
define internal void @ResampleFrame_Mono(ptr noundef %0, ptr noundef %1, ptr noundef %2, float noundef %3, i32 noundef %4) #0 {
  %6 = alloca ptr, align 8
  %7 = alloca ptr, align 8
  %8 = alloca ptr, align 8
  %9 = alloca float, align 4
  %10 = alloca i32, align 4
  %11 = alloca float, align 4
  %12 = alloca float, align 4
  %13 = alloca i32, align 4
  %14 = alloca float, align 4
  %15 = alloca float, align 4
  store ptr %0, ptr %6, align 8
  store ptr %1, ptr %7, align 8
  store ptr %2, ptr %8, align 8
  store float %3, ptr %9, align 4
  store i32 %4, ptr %10, align 4
  call void @llvm.lifetime.start.p0(i64 4, ptr %11) #6
  %16 = load float, ptr %9, align 4
  %17 = load float, ptr %9, align 4
  %18 = fmul float %16, %17
  store float %18, ptr %11, align 4
  call void @llvm.lifetime.start.p0(i64 4, ptr %12) #6
  %19 = load float, ptr %9, align 4
  %20 = load float, ptr %11, align 4
  %21 = fmul float %19, %20
  store float %21, ptr %12, align 4
  call void @llvm.lifetime.start.p0(i64 4, ptr %13) #6
  call void @llvm.lifetime.start.p0(i64 4, ptr %14) #6
  store float 0.000000e+00, ptr %14, align 4
  store i32 0, ptr %13, align 4
  br label %22

22:                                               ; preds = %52, %5
  %23 = load i32, ptr %13, align 4
  %24 = icmp slt i32 %23, 10
  br i1 %24, label %25, label %57

25:                                               ; preds = %22
  call void @llvm.lifetime.start.p0(i64 4, ptr %15) #6
  %26 = load ptr, ptr %8, align 8
  %27 = getelementptr inbounds [4 x float], ptr %26, i64 0, i64 0
  %28 = load float, ptr %27, align 4
  %29 = load ptr, ptr %8, align 8
  %30 = getelementptr inbounds [4 x float], ptr %29, i64 0, i64 1
  %31 = load float, ptr %30, align 4
  %32 = load float, ptr %9, align 4
  %33 = call float @llvm.fmuladd.f32(float %31, float %32, float %28)
  %34 = load ptr, ptr %8, align 8
  %35 = getelementptr inbounds [4 x float], ptr %34, i64 0, i64 2
  %36 = load float, ptr %35, align 4
  %37 = load float, ptr %11, align 4
  %38 = call float @llvm.fmuladd.f32(float %36, float %37, float %33)
  %39 = load ptr, ptr %8, align 8
  %40 = getelementptr inbounds [4 x float], ptr %39, i64 0, i64 3
  %41 = load float, ptr %40, align 4
  %42 = load float, ptr %12, align 4
  %43 = call float @llvm.fmuladd.f32(float %41, float %42, float %38)
  store float %43, ptr %15, align 4
  %44 = load ptr, ptr %6, align 8
  %45 = load i32, ptr %13, align 4
  %46 = sext i32 %45 to i64
  %47 = getelementptr inbounds float, ptr %44, i64 %46
  %48 = load float, ptr %47, align 4
  %49 = load float, ptr %15, align 4
  %50 = load float, ptr %14, align 4
  %51 = call float @llvm.fmuladd.f32(float %48, float %49, float %50)
  store float %51, ptr %14, align 4
  call void @llvm.lifetime.end.p0(i64 4, ptr %15) #6
  br label %52

52:                                               ; preds = %25
  %53 = load i32, ptr %13, align 4
  %54 = add nsw i32 %53, 1
  store i32 %54, ptr %13, align 4
  %55 = load ptr, ptr %8, align 8
  %56 = getelementptr inbounds nuw %union.Cubic, ptr %55, i32 1
  store ptr %56, ptr %8, align 8
  br label %22, !llvm.loop !16

57:                                               ; preds = %22
  %58 = load float, ptr %14, align 4
  %59 = load ptr, ptr %7, align 8
  %60 = getelementptr inbounds float, ptr %59, i64 0
  store float %58, ptr %60, align 4
  call void @llvm.lifetime.end.p0(i64 4, ptr %14) #6
  call void @llvm.lifetime.end.p0(i64 4, ptr %13) #6
  call void @llvm.lifetime.end.p0(i64 4, ptr %12) #6
  call void @llvm.lifetime.end.p0(i64 4, ptr %11) #6
  ret void
}