; Function Attrs: nofree norecurse nosync nounwind memory(argmem: readwrite) uwtable
define internal void @ResampleFrame_Mono(ptr noundef readonly captures(none) %0, ptr noundef writeonly captures(none) %1, ptr noundef readonly captures(none) %2, float noundef %3, i32 %4) #5 {
  %6 = fmul float %3, %3
  %7 = fmul float %3, %6
  br label %8

8:                                                ; preds = %5, %8
  %indvars.iv = phi i64 [ 0, %5 ], [ %indvars.iv.next, %8 ]
  %.023 = phi ptr [ %2, %5 ], [ %22, %8 ]
  %.01922 = phi float [ 0.000000e+00, %5 ], [ %21, %8 ]
  %9 = load float, ptr %.023, align 4
  %10 = getelementptr inbounds nuw i8, ptr %.023, i64 4
  %11 = load float, ptr %10, align 4
  %12 = tail call float @llvm.fmuladd.f32(float %11, float %3, float %9)
  %13 = getelementptr inbounds nuw i8, ptr %.023, i64 8
  %14 = load float, ptr %13, align 4
  %15 = tail call float @llvm.fmuladd.f32(float %14, float %6, float %12)
  %16 = getelementptr inbounds nuw i8, ptr %.023, i64 12
  %17 = load float, ptr %16, align 4
  %18 = tail call float @llvm.fmuladd.f32(float %17, float %7, float %15)
  %19 = getelementptr inbounds nuw float, ptr %0, i64 %indvars.iv
  %20 = load float, ptr %19, align 4
  %21 = tail call float @llvm.fmuladd.f32(float %20, float %18, float %.01922)
  %indvars.iv.next = add nuw nsw i64 %indvars.iv, 1
  %22 = getelementptr inbounds nuw i8, ptr %.023, i64 16
  %exitcond.not = icmp eq i64 %indvars.iv.next, 10
  br i1 %exitcond.not, label %23, label %8, !llvm.loop !14

23:                                               ; preds = %8
  store float %21, ptr %1, align 4
  ret void
}